
RY_BOOTLOADER.elf:     file format elf32-littlearm

Sections:
Idx Name          Size      VMA       LMA       File off  Algn
  0 .isr_vector   0000010c  08000000  08000000  00001000  2**0
                  CONTENTS, ALLOC, LOAD, READONLY, DATA
  1 .text         00000aa4  0800010c  0800010c  0000110c  2**2
                  CONTENTS, ALLOC, LOAD, READONLY, CODE
  2 .rodata       00000000  08000bb0  08000bb0  00002010  2**0
                  CONTENTS, ALLOC, LOAD, DATA
  3 .ARM.extab    00000000  08000bb0  08000bb0  00002010  2**0
                  CONTENTS, READONLY
  4 .ARM          00000000  08000bb0  08000bb0  00002010  2**0
                  CONTENTS, READONLY
  5 .preinit_array 00000000  08000bb0  08000bb0  00002010  2**0
                  CONTENTS, ALLOC, LOAD, DATA
  6 .init_array   00000004  08000bb0  08000bb0  00001bb0  2**2
                  CONTENTS, ALLOC, LOAD, READONLY, DATA
  7 .fini_array   00000004  08000bb4  08000bb4  00001bb4  2**2
                  CONTENTS, ALLOC, LOAD, READONLY, DATA
  8 .data         00000010  20000000  08000bb8  00002000  2**2
                  CONTENTS, ALLOC, LOAD, DATA
  9 .bss          000049ec  20000010  08000bc8  00002010  2**2
                  ALLOC
 10 ._user_heap_stack 00000604  200049fc  08000bc8  000029fc  2**0
                  ALLOC
 11 .ARM.attributes 00000029  00000000  00000000  00002010  2**0
                  CONTENTS, READONLY
 12 .debug_info   00005a56  00000000  00000000  00002039  2**0
                  CONTENTS, READONLY, DEBUGGING, OCTETS
 13 .debug_abbrev 00000df0  00000000  00000000  00007a8f  2**0
                  CONTENTS, READONLY, DEBUGGING, OCTETS
 14 .debug_aranges 00000328  00000000  00000000  00008880  2**3
                  CONTENTS, READONLY, DEBUGGING, OCTETS
 15 .debug_rnglists 00000235  00000000  00000000  00008ba8  2**0
                  CONTENTS, READONLY, DEBUGGING, OCTETS
 16 .debug_macro  00016b8f  00000000  00000000  00008ddd  2**0
                  CONTENTS, READONLY, DEBUGGING, OCTETS
 17 .debug_line   00004a06  00000000  00000000  0001f96c  2**0
                  CONTENTS, READONLY, DEBUGGING, OCTETS
 18 .debug_str    00080874  00000000  00000000  00024372  2**0
                  CONTENTS, READONLY, DEBUGGING, OCTETS
 19 .comment      00000043  00000000  00000000  000a4be6  2**0
                  CONTENTS, READONLY
 20 .debug_frame  000009c0  00000000  00000000  000a4c2c  2**2
                  CONTENTS, READONLY, DEBUGGING, OCTETS
 21 .debug_line_str 0000004d  00000000  00000000  000a55ec  2**0
                  CONTENTS, READONLY, DEBUGGING, OCTETS

Disassembly of section .text:

0800010c <__do_global_dtors_aux>:
 800010c:	b510      	push	{r4, lr}
 800010e:	4c05      	ldr	r4, [pc, #20]	@ (8000124 <__do_global_dtors_aux+0x18>)
 8000110:	7823      	ldrb	r3, [r4, #0]
 8000112:	b933      	cbnz	r3, 8000122 <__do_global_dtors_aux+0x16>
 8000114:	4b04      	ldr	r3, [pc, #16]	@ (8000128 <__do_global_dtors_aux+0x1c>)
 8000116:	b113      	cbz	r3, 800011e <__do_global_dtors_aux+0x12>
 8000118:	4804      	ldr	r0, [pc, #16]	@ (800012c <__do_global_dtors_aux+0x20>)
 800011a:	f3af 8000 	nop.w
 800011e:	2301      	movs	r3, #1
 8000120:	7023      	strb	r3, [r4, #0]
 8000122:	bd10      	pop	{r4, pc}
 8000124:	20000010 	.word	0x20000010
 8000128:	00000000 	.word	0x00000000
 800012c:	08000b98 	.word	0x08000b98

08000130 <frame_dummy>:
 8000130:	b508      	push	{r3, lr}
 8000132:	4b03      	ldr	r3, [pc, #12]	@ (8000140 <frame_dummy+0x10>)
 8000134:	b11b      	cbz	r3, 800013e <frame_dummy+0xe>
 8000136:	4903      	ldr	r1, [pc, #12]	@ (8000144 <frame_dummy+0x14>)
 8000138:	4803      	ldr	r0, [pc, #12]	@ (8000148 <frame_dummy+0x18>)
 800013a:	f3af 8000 	nop.w
 800013e:	bd08      	pop	{r3, pc}
 8000140:	00000000 	.word	0x00000000
 8000144:	20000014 	.word	0x20000014
 8000148:	08000b98 	.word	0x08000b98

0800014c <RY_FLASH_Unlock>:
 800014c:	b480      	push	{r7}
 800014e:	af00      	add	r7, sp, #0
 8000150:	4b07      	ldr	r3, [pc, #28]	@ (8000170 <RY_FLASH_Unlock+0x24>)
 8000152:	681b      	ldr	r3, [r3, #0]
 8000154:	f003 0380 	and.w	r3, r3, #128	@ 0x80
 8000158:	2b00      	cmp	r3, #0
 800015a:	d005      	beq.n	8000168 <RY_FLASH_Unlock+0x1c>
 800015c:	4b05      	ldr	r3, [pc, #20]	@ (8000174 <RY_FLASH_Unlock+0x28>)
 800015e:	4a06      	ldr	r2, [pc, #24]	@ (8000178 <RY_FLASH_Unlock+0x2c>)
 8000160:	601a      	str	r2, [r3, #0]
 8000162:	4b04      	ldr	r3, [pc, #16]	@ (8000174 <RY_FLASH_Unlock+0x28>)
 8000164:	4a05      	ldr	r2, [pc, #20]	@ (800017c <RY_FLASH_Unlock+0x30>)
 8000166:	601a      	str	r2, [r3, #0]
 8000168:	bf00      	nop
 800016a:	46bd      	mov	sp, r7
 800016c:	bc80      	pop	{r7}
 800016e:	4770      	bx	lr
 8000170:	40022010 	.word	0x40022010
 8000174:	40022004 	.word	0x40022004
 8000178:	45670123 	.word	0x45670123
 800017c:	cdef89ab 	.word	0xcdef89ab

08000180 <RY_FLASH_Lock>:
 8000180:	b480      	push	{r7}
 8000182:	af00      	add	r7, sp, #0
 8000184:	4b04      	ldr	r3, [pc, #16]	@ (8000198 <RY_FLASH_Lock+0x18>)
 8000186:	681b      	ldr	r3, [r3, #0]
 8000188:	4a03      	ldr	r2, [pc, #12]	@ (8000198 <RY_FLASH_Lock+0x18>)
 800018a:	f043 0380 	orr.w	r3, r3, #128	@ 0x80
 800018e:	6013      	str	r3, [r2, #0]
 8000190:	bf00      	nop
 8000192:	46bd      	mov	sp, r7
 8000194:	bc80      	pop	{r7}
 8000196:	4770      	bx	lr
 8000198:	40022010 	.word	0x40022010

0800019c <RY_FLASH_WaitForLastOperation>:
 800019c:	b480      	push	{r7}
 800019e:	b083      	sub	sp, #12
 80001a0:	af00      	add	r7, sp, #0
 80001a2:	4b1b      	ldr	r3, [pc, #108]	@ (8000210 <RY_FLASH_WaitForLastOperation+0x74>)
 80001a4:	607b      	str	r3, [r7, #4]
 80001a6:	bf00      	nop
 80001a8:	4b1a      	ldr	r3, [pc, #104]	@ (8000214 <RY_FLASH_WaitForLastOperation+0x78>)
 80001aa:	681b      	ldr	r3, [r3, #0]
 80001ac:	f003 0301 	and.w	r3, r3, #1
 80001b0:	2b00      	cmp	r3, #0
 80001b2:	d005      	beq.n	80001c0 <RY_FLASH_WaitForLastOperation+0x24>
 80001b4:	687b      	ldr	r3, [r7, #4]
 80001b6:	3b01      	subs	r3, #1
 80001b8:	607b      	str	r3, [r7, #4]
 80001ba:	687b      	ldr	r3, [r7, #4]
 80001bc:	2b00      	cmp	r3, #0
 80001be:	d1f3      	bne.n	80001a8 <RY_FLASH_WaitForLastOperation+0xc>
 80001c0:	687b      	ldr	r3, [r7, #4]
 80001c2:	2b00      	cmp	r3, #0
 80001c4:	d101      	bne.n	80001ca <RY_FLASH_WaitForLastOperation+0x2e>
 80001c6:	2302      	movs	r3, #2
 80001c8:	e01c      	b.n	8000204 <RY_FLASH_WaitForLastOperation+0x68>
 80001ca:	4b12      	ldr	r3, [pc, #72]	@ (8000214 <RY_FLASH_WaitForLastOperation+0x78>)
 80001cc:	681b      	ldr	r3, [r3, #0]
 80001ce:	f003 0310 	and.w	r3, r3, #16
 80001d2:	2b00      	cmp	r3, #0
 80001d4:	d001      	beq.n	80001da <RY_FLASH_WaitForLastOperation+0x3e>
 80001d6:	2306      	movs	r3, #6
 80001d8:	e014      	b.n	8000204 <RY_FLASH_WaitForLastOperation+0x68>
 80001da:	4b0e      	ldr	r3, [pc, #56]	@ (8000214 <RY_FLASH_WaitForLastOperation+0x78>)
 80001dc:	681b      	ldr	r3, [r3, #0]
 80001de:	f003 0304 	and.w	r3, r3, #4
 80001e2:	2b00      	cmp	r3, #0
 80001e4:	d001      	beq.n	80001ea <RY_FLASH_WaitForLastOperation+0x4e>
 80001e6:	2305      	movs	r3, #5
 80001e8:	e00c      	b.n	8000204 <RY_FLASH_WaitForLastOperation+0x68>
 80001ea:	4b0a      	ldr	r3, [pc, #40]	@ (8000214 <RY_FLASH_WaitForLastOperation+0x78>)
 80001ec:	681b      	ldr	r3, [r3, #0]
 80001ee:	f003 0320 	and.w	r3, r3, #32
 80001f2:	2b00      	cmp	r3, #0
 80001f4:	d005      	beq.n	8000202 <RY_FLASH_WaitForLastOperation+0x66>
 80001f6:	4b07      	ldr	r3, [pc, #28]	@ (8000214 <RY_FLASH_WaitForLastOperation+0x78>)
 80001f8:	681b      	ldr	r3, [r3, #0]
 80001fa:	4a06      	ldr	r2, [pc, #24]	@ (8000214 <RY_FLASH_WaitForLastOperation+0x78>)
 80001fc:	f043 0320 	orr.w	r3, r3, #32
 8000200:	6013      	str	r3, [r2, #0]
 8000202:	2300      	movs	r3, #0
 8000204:	4618      	mov	r0, r3
 8000206:	370c      	adds	r7, #12
 8000208:	46bd      	mov	sp, r7
 800020a:	bc80      	pop	{r7}
 800020c:	4770      	bx	lr
 800020e:	bf00      	nop
 8000210:	000186a0 	.word	0x000186a0
 8000214:	4002200c 	.word	0x4002200c

08000218 <RY_FLASH_ErasePage>:
 8000218:	b580      	push	{r7, lr}
 800021a:	b084      	sub	sp, #16
 800021c:	af00      	add	r7, sp, #0
 800021e:	6078      	str	r0, [r7, #4]
 8000220:	687b      	ldr	r3, [r7, #4]
 8000222:	4a1c      	ldr	r2, [pc, #112]	@ (8000294 <RY_FLASH_ErasePage+0x7c>)
 8000224:	4293      	cmp	r3, r2
 8000226:	d308      	bcc.n	800023a <RY_FLASH_ErasePage+0x22>
 8000228:	687b      	ldr	r3, [r7, #4]
 800022a:	4a1b      	ldr	r2, [pc, #108]	@ (8000298 <RY_FLASH_ErasePage+0x80>)
 800022c:	4293      	cmp	r3, r2
 800022e:	d804      	bhi.n	800023a <RY_FLASH_ErasePage+0x22>
 8000230:	687b      	ldr	r3, [r7, #4]
 8000232:	f3c3 0309 	ubfx	r3, r3, #0, #10
 8000236:	2b00      	cmp	r3, #0
 8000238:	d001      	beq.n	800023e <RY_FLASH_ErasePage+0x26>
 800023a:	2303      	movs	r3, #3
 800023c:	e026      	b.n	800028c <RY_FLASH_ErasePage+0x74>
 800023e:	f7ff ff85 	bl	800014c <RY_FLASH_Unlock>
 8000242:	f7ff ffab 	bl	800019c <RY_FLASH_WaitForLastOperation>
 8000246:	4603      	mov	r3, r0
 8000248:	73fb      	strb	r3, [r7, #15]
 800024a:	7bfb      	ldrb	r3, [r7, #15]
 800024c:	2b00      	cmp	r3, #0
 800024e:	d001      	beq.n	8000254 <RY_FLASH_ErasePage+0x3c>
 8000250:	7bfb      	ldrb	r3, [r7, #15]
 8000252:	e01b      	b.n	800028c <RY_FLASH_ErasePage+0x74>
 8000254:	4b11      	ldr	r3, [pc, #68]	@ (800029c <RY_FLASH_ErasePage+0x84>)
 8000256:	681b      	ldr	r3, [r3, #0]
 8000258:	4a10      	ldr	r2, [pc, #64]	@ (800029c <RY_FLASH_ErasePage+0x84>)
 800025a:	f043 0302 	orr.w	r3, r3, #2
 800025e:	6013      	str	r3, [r2, #0]
 8000260:	4a0f      	ldr	r2, [pc, #60]	@ (80002a0 <RY_FLASH_ErasePage+0x88>)
 8000262:	687b      	ldr	r3, [r7, #4]
 8000264:	6013      	str	r3, [r2, #0]
 8000266:	4b0d      	ldr	r3, [pc, #52]	@ (800029c <RY_FLASH_ErasePage+0x84>)
 8000268:	681b      	ldr	r3, [r3, #0]
 800026a:	4a0c      	ldr	r2, [pc, #48]	@ (800029c <RY_FLASH_ErasePage+0x84>)
 800026c:	f043 0340 	orr.w	r3, r3, #64	@ 0x40
 8000270:	6013      	str	r3, [r2, #0]
 8000272:	f7ff ff93 	bl	800019c <RY_FLASH_WaitForLastOperation>
 8000276:	4603      	mov	r3, r0
 8000278:	73fb      	strb	r3, [r7, #15]
 800027a:	4b08      	ldr	r3, [pc, #32]	@ (800029c <RY_FLASH_ErasePage+0x84>)
 800027c:	681b      	ldr	r3, [r3, #0]
 800027e:	4a07      	ldr	r2, [pc, #28]	@ (800029c <RY_FLASH_ErasePage+0x84>)
 8000280:	f023 0302 	bic.w	r3, r3, #2
 8000284:	6013      	str	r3, [r2, #0]
 8000286:	f7ff ff7b 	bl	8000180 <RY_FLASH_Lock>
 800028a:	7bfb      	ldrb	r3, [r7, #15]
 800028c:	4618      	mov	r0, r3
 800028e:	3710      	adds	r7, #16
 8000290:	46bd      	mov	sp, r7
 8000292:	bd80      	pop	{r7, pc}
 8000294:	08004000 	.word	0x08004000
 8000298:	0801ffff 	.word	0x0801ffff
 800029c:	40022010 	.word	0x40022010
 80002a0:	40022014 	.word	0x40022014

080002a4 <RY_FLASH_ProgramHalfWord>:
 80002a4:	b580      	push	{r7, lr}
 80002a6:	b084      	sub	sp, #16
 80002a8:	af00      	add	r7, sp, #0
 80002aa:	6078      	str	r0, [r7, #4]
 80002ac:	460b      	mov	r3, r1
 80002ae:	807b      	strh	r3, [r7, #2]
 80002b0:	687b      	ldr	r3, [r7, #4]
 80002b2:	f003 0301 	and.w	r3, r3, #1
 80002b6:	2b00      	cmp	r3, #0
 80002b8:	d107      	bne.n	80002ca <RY_FLASH_ProgramHalfWord+0x26>
 80002ba:	687b      	ldr	r3, [r7, #4]
 80002bc:	4a1a      	ldr	r2, [pc, #104]	@ (8000328 <RY_FLASH_ProgramHalfWord+0x84>)
 80002be:	4293      	cmp	r3, r2
 80002c0:	d303      	bcc.n	80002ca <RY_FLASH_ProgramHalfWord+0x26>
 80002c2:	687b      	ldr	r3, [r7, #4]
 80002c4:	4a19      	ldr	r2, [pc, #100]	@ (800032c <RY_FLASH_ProgramHalfWord+0x88>)
 80002c6:	4293      	cmp	r3, r2
 80002c8:	d901      	bls.n	80002ce <RY_FLASH_ProgramHalfWord+0x2a>
 80002ca:	2304      	movs	r3, #4
 80002cc:	e028      	b.n	8000320 <RY_FLASH_ProgramHalfWord+0x7c>
 80002ce:	f7ff ff3d 	bl	800014c <RY_FLASH_Unlock>
 80002d2:	f7ff ff63 	bl	800019c <RY_FLASH_WaitForLastOperation>
 80002d6:	4603      	mov	r3, r0
 80002d8:	73fb      	strb	r3, [r7, #15]
 80002da:	7bfb      	ldrb	r3, [r7, #15]
 80002dc:	2b00      	cmp	r3, #0
 80002de:	d001      	beq.n	80002e4 <RY_FLASH_ProgramHalfWord+0x40>
 80002e0:	7bfb      	ldrb	r3, [r7, #15]
 80002e2:	e01d      	b.n	8000320 <RY_FLASH_ProgramHalfWord+0x7c>
 80002e4:	4b12      	ldr	r3, [pc, #72]	@ (8000330 <RY_FLASH_ProgramHalfWord+0x8c>)
 80002e6:	681b      	ldr	r3, [r3, #0]
 80002e8:	4a11      	ldr	r2, [pc, #68]	@ (8000330 <RY_FLASH_ProgramHalfWord+0x8c>)
 80002ea:	f043 0301 	orr.w	r3, r3, #1
 80002ee:	6013      	str	r3, [r2, #0]
 80002f0:	687b      	ldr	r3, [r7, #4]
 80002f2:	887a      	ldrh	r2, [r7, #2]
 80002f4:	801a      	strh	r2, [r3, #0]
 80002f6:	f7ff ff51 	bl	800019c <RY_FLASH_WaitForLastOperation>
 80002fa:	4603      	mov	r3, r0
 80002fc:	73fb      	strb	r3, [r7, #15]
 80002fe:	4b0c      	ldr	r3, [pc, #48]	@ (8000330 <RY_FLASH_ProgramHalfWord+0x8c>)
 8000300:	681b      	ldr	r3, [r3, #0]
 8000302:	4a0b      	ldr	r2, [pc, #44]	@ (8000330 <RY_FLASH_ProgramHalfWord+0x8c>)
 8000304:	f023 0301 	bic.w	r3, r3, #1
 8000308:	6013      	str	r3, [r2, #0]
 800030a:	f7ff ff39 	bl	8000180 <RY_FLASH_Lock>
 800030e:	687b      	ldr	r3, [r7, #4]
 8000310:	881b      	ldrh	r3, [r3, #0]
 8000312:	b29b      	uxth	r3, r3
 8000314:	887a      	ldrh	r2, [r7, #2]
 8000316:	429a      	cmp	r2, r3
 8000318:	d001      	beq.n	800031e <RY_FLASH_ProgramHalfWord+0x7a>
 800031a:	2307      	movs	r3, #7
 800031c:	e000      	b.n	8000320 <RY_FLASH_ProgramHalfWord+0x7c>
 800031e:	7bfb      	ldrb	r3, [r7, #15]
 8000320:	4618      	mov	r0, r3
 8000322:	3710      	adds	r7, #16
 8000324:	46bd      	mov	sp, r7
 8000326:	bd80      	pop	{r7, pc}
 8000328:	08004000 	.word	0x08004000
 800032c:	0801ffff 	.word	0x0801ffff
 8000330:	40022010 	.word	0x40022010

08000334 <RY_FLASH_ProgramBuffer>:
 8000334:	b580      	push	{r7, lr}
 8000336:	b086      	sub	sp, #24
 8000338:	af00      	add	r7, sp, #0
 800033a:	60f8      	str	r0, [r7, #12]
 800033c:	60b9      	str	r1, [r7, #8]
 800033e:	607a      	str	r2, [r7, #4]
 8000340:	68fb      	ldr	r3, [r7, #12]
 8000342:	f003 0301 	and.w	r3, r3, #1
 8000346:	2b00      	cmp	r3, #0
 8000348:	d109      	bne.n	800035e <RY_FLASH_ProgramBuffer+0x2a>
 800034a:	68fb      	ldr	r3, [r7, #12]
 800034c:	4a23      	ldr	r2, [pc, #140]	@ (80003dc <RY_FLASH_ProgramBuffer+0xa8>)
 800034e:	4293      	cmp	r3, r2
 8000350:	d305      	bcc.n	800035e <RY_FLASH_ProgramBuffer+0x2a>
 8000352:	68fa      	ldr	r2, [r7, #12]
 8000354:	687b      	ldr	r3, [r7, #4]
 8000356:	4413      	add	r3, r2
 8000358:	4a21      	ldr	r2, [pc, #132]	@ (80003e0 <RY_FLASH_ProgramBuffer+0xac>)
 800035a:	4293      	cmp	r3, r2
 800035c:	d901      	bls.n	8000362 <RY_FLASH_ProgramBuffer+0x2e>
 800035e:	2304      	movs	r3, #4
 8000360:	e038      	b.n	80003d4 <RY_FLASH_ProgramBuffer+0xa0>
 8000362:	2300      	movs	r3, #0
 8000364:	617b      	str	r3, [r7, #20]
 8000366:	e030      	b.n	80003ca <RY_FLASH_ProgramBuffer+0x96>
 8000368:	697b      	ldr	r3, [r7, #20]
 800036a:	3301      	adds	r3, #1
 800036c:	687a      	ldr	r2, [r7, #4]
 800036e:	429a      	cmp	r2, r3
 8000370:	d910      	bls.n	8000394 <RY_FLASH_ProgramBuffer+0x60>
 8000372:	68ba      	ldr	r2, [r7, #8]
 8000374:	697b      	ldr	r3, [r7, #20]
 8000376:	4413      	add	r3, r2
 8000378:	781b      	ldrb	r3, [r3, #0]
 800037a:	b21a      	sxth	r2, r3
 800037c:	697b      	ldr	r3, [r7, #20]
 800037e:	3301      	adds	r3, #1
 8000380:	68b9      	ldr	r1, [r7, #8]
 8000382:	440b      	add	r3, r1
 8000384:	781b      	ldrb	r3, [r3, #0]
 8000386:	b21b      	sxth	r3, r3
 8000388:	021b      	lsls	r3, r3, #8
 800038a:	b21b      	sxth	r3, r3
 800038c:	4313      	orrs	r3, r2
 800038e:	b21b      	sxth	r3, r3
 8000390:	827b      	strh	r3, [r7, #18]
 8000392:	e008      	b.n	80003a6 <RY_FLASH_ProgramBuffer+0x72>
 8000394:	68ba      	ldr	r2, [r7, #8]
 8000396:	697b      	ldr	r3, [r7, #20]
 8000398:	4413      	add	r3, r2
 800039a:	781b      	ldrb	r3, [r3, #0]
 800039c:	b21b      	sxth	r3, r3
 800039e:	f063 03ff 	orn	r3, r3, #255	@ 0xff
 80003a2:	b21b      	sxth	r3, r3
 80003a4:	827b      	strh	r3, [r7, #18]
 80003a6:	68fa      	ldr	r2, [r7, #12]
 80003a8:	697b      	ldr	r3, [r7, #20]
 80003aa:	4413      	add	r3, r2
 80003ac:	8a7a      	ldrh	r2, [r7, #18]
 80003ae:	4611      	mov	r1, r2
 80003b0:	4618      	mov	r0, r3
 80003b2:	f7ff ff77 	bl	80002a4 <RY_FLASH_ProgramHalfWord>
 80003b6:	4603      	mov	r3, r0
 80003b8:	747b      	strb	r3, [r7, #17]
 80003ba:	7c7b      	ldrb	r3, [r7, #17]
 80003bc:	2b00      	cmp	r3, #0
 80003be:	d001      	beq.n	80003c4 <RY_FLASH_ProgramBuffer+0x90>
 80003c0:	7c7b      	ldrb	r3, [r7, #17]
 80003c2:	e007      	b.n	80003d4 <RY_FLASH_ProgramBuffer+0xa0>
 80003c4:	697b      	ldr	r3, [r7, #20]
 80003c6:	3302      	adds	r3, #2
 80003c8:	617b      	str	r3, [r7, #20]
 80003ca:	697a      	ldr	r2, [r7, #20]
 80003cc:	687b      	ldr	r3, [r7, #4]
 80003ce:	429a      	cmp	r2, r3
 80003d0:	d3ca      	bcc.n	8000368 <RY_FLASH_ProgramBuffer+0x34>
 80003d2:	2300      	movs	r3, #0
 80003d4:	4618      	mov	r0, r3
 80003d6:	3718      	adds	r7, #24
 80003d8:	46bd      	mov	sp, r7
 80003da:	bd80      	pop	{r7, pc}
 80003dc:	08004000 	.word	0x08004000
 80003e0:	08020000 	.word	0x08020000

080003e4 <RY_FLASH_EraseAppRegion>:
 80003e4:	b580      	push	{r7, lr}
 80003e6:	b082      	sub	sp, #8
 80003e8:	af00      	add	r7, sp, #0
 80003ea:	4b0d      	ldr	r3, [pc, #52]	@ (8000420 <RY_FLASH_EraseAppRegion+0x3c>)
 80003ec:	607b      	str	r3, [r7, #4]
 80003ee:	e00d      	b.n	800040c <RY_FLASH_EraseAppRegion+0x28>
 80003f0:	6878      	ldr	r0, [r7, #4]
 80003f2:	f7ff ff11 	bl	8000218 <RY_FLASH_ErasePage>
 80003f6:	4603      	mov	r3, r0
 80003f8:	70fb      	strb	r3, [r7, #3]
 80003fa:	78fb      	ldrb	r3, [r7, #3]
 80003fc:	2b00      	cmp	r3, #0
 80003fe:	d001      	beq.n	8000404 <RY_FLASH_EraseAppRegion+0x20>
 8000400:	78fb      	ldrb	r3, [r7, #3]
 8000402:	e008      	b.n	8000416 <RY_FLASH_EraseAppRegion+0x32>
 8000404:	687b      	ldr	r3, [r7, #4]
 8000406:	f503 6380 	add.w	r3, r3, #1024	@ 0x400
 800040a:	607b      	str	r3, [r7, #4]
 800040c:	687b      	ldr	r3, [r7, #4]
 800040e:	4a05      	ldr	r2, [pc, #20]	@ (8000424 <RY_FLASH_EraseAppRegion+0x40>)
 8000410:	4293      	cmp	r3, r2
 8000412:	d9ed      	bls.n	80003f0 <RY_FLASH_EraseAppRegion+0xc>
 8000414:	2300      	movs	r3, #0
 8000416:	4618      	mov	r0, r3
 8000418:	3708      	adds	r7, #8
 800041a:	46bd      	mov	sp, r7
 800041c:	bd80      	pop	{r7, pc}
 800041e:	bf00      	nop
 8000420:	08004000 	.word	0x08004000
 8000424:	0801ffff 	.word	0x0801ffff

08000428 <LED_INIT>:
// RCC registers
#define RCC_APB2ENR     (*(volatile uint32_t *)(RCC_BASE + 0x18))
// GPIOB registers
#define GPIOB_CRL       (*(volatile uint32_t *)(GPIOB_BASE + 0x00))
#define GPIOB_ODR       (*(volatile uint32_t *)(GPIOB_BASE + 0x0C))
void LED_INIT(){
 8000428:	b480      	push	{r7}
 800042a:	af00      	add	r7, sp, #0
   // RCC_APB2ENR |= (1 << 3); // IOPBEN
	RY_RCC->APB2ENR.BITS.IOPBEN=1;
 800042c:	4a09      	ldr	r2, [pc, #36]	@ (8000454 <LED_INIT+0x2c>)
 800042e:	6993      	ldr	r3, [r2, #24]
 8000430:	f043 0308 	orr.w	r3, r3, #8
 8000434:	6193      	str	r3, [r2, #24]
	//GPIOB->CRL.ALL&=~(0XF<<(2*8));
	RY_GPIOB->CRL.BITS.CNF2=0b00;
 8000436:	4a08      	ldr	r2, [pc, #32]	@ (8000458 <LED_INIT+0x30>)
 8000438:	6813      	ldr	r3, [r2, #0]
 800043a:	f423 6340 	bic.w	r3, r3, #3072	@ 0xc00
 800043e:	6013      	str	r3, [r2, #0]
	RY_GPIOB->CRL.BITS.MODE2=0b10;
 8000440:	4a05      	ldr	r2, [pc, #20]	@ (8000458 <LED_INIT+0x30>)
 8000442:	6813      	ldr	r3, [r2, #0]
 8000444:	2102      	movs	r1, #2
 8000446:	f361 2309 	bfi	r3, r1, #8, #2
 800044a:	6013      	str	r3, [r2, #0]
}
 800044c:	bf00      	nop
 800044e:	46bd      	mov	sp, r7
 8000450:	bc80      	pop	{r7}
 8000452:	4770      	bx	lr
 8000454:	40021000 	.word	0x40021000
 8000458:	40010c00 	.word	0x40010c00

0800045c <TOGGLE_LED>:
void TOGGLE_LED(){
 800045c:	b480      	push	{r7}
 800045e:	af00      	add	r7, sp, #0
    GPIOB_ODR ^=(1 << 2); ;
 8000460:	4b04      	ldr	r3, [pc, #16]	@ (8000474 <TOGGLE_LED+0x18>)
 8000462:	681b      	ldr	r3, [r3, #0]
 8000464:	4a03      	ldr	r2, [pc, #12]	@ (8000474 <TOGGLE_LED+0x18>)
 8000466:	f083 0304 	eor.w	r3, r3, #4
 800046a:	6013      	str	r3, [r2, #0]
	//RY_GPIOB->ODR.BITS.ODR2=1;
	}
 800046c:	bf00      	nop
 800046e:	46bd      	mov	sp, r7
 8000470:	bc80      	pop	{r7}
 8000472:	4770      	bx	lr
 8000474:	40010c0c 	.word	0x40010c0c

08000478 <STATUS_LEDS_APP_OR_BOOT_INIT>:
void STATUS_LEDS_APP_OR_BOOT_INIT(){
 8000478:	b480      	push	{r7}
 800047a:	af00      	add	r7, sp, #0
	RY_RCC->APB2ENR.BITS.IOPCEN=1;
 800047c:	4a0f      	ldr	r2, [pc, #60]	@ (80004bc <STATUS_LEDS_APP_OR_BOOT_INIT+0x44>)
 800047e:	6993      	ldr	r3, [r2, #24]
 8000480:	f043 0310 	orr.w	r3, r3, #16
 8000484:	6193      	str	r3, [r2, #24]
	RY_GPIOC->CRH.BITS.CNF13=0b00;
 8000486:	4a0e      	ldr	r2, [pc, #56]	@ (80004c0 <STATUS_LEDS_APP_OR_BOOT_INIT+0x48>)
 8000488:	6853      	ldr	r3, [r2, #4]
 800048a:	f423 0340 	bic.w	r3, r3, #12582912	@ 0xc00000
 800048e:	6053      	str	r3, [r2, #4]
	RY_GPIOC->CRH.BITS.CNF13=0b10;
 8000490:	4a0b      	ldr	r2, [pc, #44]	@ (80004c0 <STATUS_LEDS_APP_OR_BOOT_INIT+0x48>)
 8000492:	6853      	ldr	r3, [r2, #4]
 8000494:	2102      	movs	r1, #2
 8000496:	f361 5397 	bfi	r3, r1, #22, #2
 800049a:	6053      	str	r3, [r2, #4]
	RY_GPIOC->CRH.BITS.CNF14=0b00;
 800049c:	4a08      	ldr	r2, [pc, #32]	@ (80004c0 <STATUS_LEDS_APP_OR_BOOT_INIT+0x48>)
 800049e:	6853      	ldr	r3, [r2, #4]
 80004a0:	f023 6340 	bic.w	r3, r3, #201326592	@ 0xc000000
 80004a4:	6053      	str	r3, [r2, #4]
	RY_GPIOC->CRH.BITS.CNF14=0b10;
 80004a6:	4a06      	ldr	r2, [pc, #24]	@ (80004c0 <STATUS_LEDS_APP_OR_BOOT_INIT+0x48>)
 80004a8:	6853      	ldr	r3, [r2, #4]
 80004aa:	2102      	movs	r1, #2
 80004ac:	f361 639b 	bfi	r3, r1, #26, #2
 80004b0:	6053      	str	r3, [r2, #4]
}
 80004b2:	bf00      	nop
 80004b4:	46bd      	mov	sp, r7
 80004b6:	bc80      	pop	{r7}
 80004b8:	4770      	bx	lr
 80004ba:	bf00      	nop
 80004bc:	40021000 	.word	0x40021000
 80004c0:	40011000 	.word	0x40011000

080004c4 <RCC_SYSTEM_CLOCK_HSE>:
 80004c4:	b480      	push	{r7}
 80004c6:	af00      	add	r7, sp, #0
 80004c8:	4a0f      	ldr	r2, [pc, #60]	@ (8000508 <RCC_SYSTEM_CLOCK_HSE+0x44>)
 80004ca:	6813      	ldr	r3, [r2, #0]
 80004cc:	f443 3380 	orr.w	r3, r3, #65536	@ 0x10000
 80004d0:	6013      	str	r3, [r2, #0]
 80004d2:	bf00      	nop
 80004d4:	4b0c      	ldr	r3, [pc, #48]	@ (8000508 <RCC_SYSTEM_CLOCK_HSE+0x44>)
 80004d6:	681b      	ldr	r3, [r3, #0]
 80004d8:	f3c3 4340 	ubfx	r3, r3, #17, #1
 80004dc:	b2db      	uxtb	r3, r3
 80004de:	2b00      	cmp	r3, #0
 80004e0:	d0f8      	beq.n	80004d4 <RCC_SYSTEM_CLOCK_HSE+0x10>
 80004e2:	4a09      	ldr	r2, [pc, #36]	@ (8000508 <RCC_SYSTEM_CLOCK_HSE+0x44>)
 80004e4:	6853      	ldr	r3, [r2, #4]
 80004e6:	2101      	movs	r1, #1
 80004e8:	f361 0301 	bfi	r3, r1, #0, #2
 80004ec:	6053      	str	r3, [r2, #4]
 80004ee:	bf00      	nop
 80004f0:	4b05      	ldr	r3, [pc, #20]	@ (8000508 <RCC_SYSTEM_CLOCK_HSE+0x44>)
 80004f2:	685b      	ldr	r3, [r3, #4]
 80004f4:	f3c3 0381 	ubfx	r3, r3, #2, #2
 80004f8:	b2db      	uxtb	r3, r3
 80004fa:	2b01      	cmp	r3, #1
 80004fc:	d1f8      	bne.n	80004f0 <RCC_SYSTEM_CLOCK_HSE+0x2c>
 80004fe:	bf00      	nop
 8000500:	bf00      	nop
 8000502:	46bd      	mov	sp, r7
 8000504:	bc80      	pop	{r7}
 8000506:	4770      	bx	lr
 8000508:	40021000 	.word	0x40021000

0800050c <RCC_SYSTEM_CLOCK_HSEPLL_72MHZ>:
 800050c:	b580      	push	{r7, lr}
 800050e:	af00      	add	r7, sp, #0
 8000510:	f7ff ffd8 	bl	80004c4 <RCC_SYSTEM_CLOCK_HSE>
 8000514:	4b1d      	ldr	r3, [pc, #116]	@ (800058c <RCC_SYSTEM_CLOCK_HSEPLL_72MHZ+0x80>)
 8000516:	681b      	ldr	r3, [r3, #0]
 8000518:	4a1c      	ldr	r2, [pc, #112]	@ (800058c <RCC_SYSTEM_CLOCK_HSEPLL_72MHZ+0x80>)
 800051a:	f023 0307 	bic.w	r3, r3, #7
 800051e:	6013      	str	r3, [r2, #0]
 8000520:	4b1a      	ldr	r3, [pc, #104]	@ (800058c <RCC_SYSTEM_CLOCK_HSEPLL_72MHZ+0x80>)
 8000522:	681b      	ldr	r3, [r3, #0]
 8000524:	4a19      	ldr	r2, [pc, #100]	@ (800058c <RCC_SYSTEM_CLOCK_HSEPLL_72MHZ+0x80>)
 8000526:	f043 0302 	orr.w	r3, r3, #2
 800052a:	6013      	str	r3, [r2, #0]
 800052c:	4b17      	ldr	r3, [pc, #92]	@ (800058c <RCC_SYSTEM_CLOCK_HSEPLL_72MHZ+0x80>)
 800052e:	681b      	ldr	r3, [r3, #0]
 8000530:	4a16      	ldr	r2, [pc, #88]	@ (800058c <RCC_SYSTEM_CLOCK_HSEPLL_72MHZ+0x80>)
 8000532:	f043 0310 	orr.w	r3, r3, #16
 8000536:	6013      	str	r3, [r2, #0]
 8000538:	4a15      	ldr	r2, [pc, #84]	@ (8000590 <RCC_SYSTEM_CLOCK_HSEPLL_72MHZ+0x84>)
 800053a:	6853      	ldr	r3, [r2, #4]
 800053c:	f443 3380 	orr.w	r3, r3, #65536	@ 0x10000
 8000540:	6053      	str	r3, [r2, #4]
 8000542:	4a13      	ldr	r2, [pc, #76]	@ (8000590 <RCC_SYSTEM_CLOCK_HSEPLL_72MHZ+0x84>)
 8000544:	6853      	ldr	r3, [r2, #4]
 8000546:	2107      	movs	r1, #7
 8000548:	f361 4395 	bfi	r3, r1, #18, #4
 800054c:	6053      	str	r3, [r2, #4]
 800054e:	4a10      	ldr	r2, [pc, #64]	@ (8000590 <RCC_SYSTEM_CLOCK_HSEPLL_72MHZ+0x84>)
 8000550:	6813      	ldr	r3, [r2, #0]
 8000552:	f043 7380 	orr.w	r3, r3, #16777216	@ 0x1000000
 8000556:	6013      	str	r3, [r2, #0]
 8000558:	bf00      	nop
 800055a:	4b0d      	ldr	r3, [pc, #52]	@ (8000590 <RCC_SYSTEM_CLOCK_HSEPLL_72MHZ+0x84>)
 800055c:	681b      	ldr	r3, [r3, #0]
 800055e:	f3c3 6340 	ubfx	r3, r3, #25, #1
 8000562:	b2db      	uxtb	r3, r3
 8000564:	2b00      	cmp	r3, #0
 8000566:	d0f8      	beq.n	800055a <RCC_SYSTEM_CLOCK_HSEPLL_72MHZ+0x4e>
 8000568:	4a09      	ldr	r2, [pc, #36]	@ (8000590 <RCC_SYSTEM_CLOCK_HSEPLL_72MHZ+0x84>)
 800056a:	6853      	ldr	r3, [r2, #4]
 800056c:	2102      	movs	r1, #2
 800056e:	f361 0301 	bfi	r3, r1, #0, #2
 8000572:	6053      	str	r3, [r2, #4]
 8000574:	bf00      	nop
 8000576:	4b06      	ldr	r3, [pc, #24]	@ (8000590 <RCC_SYSTEM_CLOCK_HSEPLL_72MHZ+0x84>)
 8000578:	685b      	ldr	r3, [r3, #4]
 800057a:	f3c3 0381 	ubfx	r3, r3, #2, #2
 800057e:	b2db      	uxtb	r3, r3
 8000580:	2b02      	cmp	r3, #2
 8000582:	d1f8      	bne.n	8000576 <RCC_SYSTEM_CLOCK_HSEPLL_72MHZ+0x6a>
 8000584:	bf00      	nop
 8000586:	bf00      	nop
 8000588:	bd80      	pop	{r7, pc}
 800058a:	bf00      	nop
 800058c:	40022000 	.word	0x40022000
 8000590:	40021000 	.word	0x40021000

08000594 <systick_init>:
 8000594:	b480      	push	{r7}
 8000596:	b083      	sub	sp, #12
 8000598:	af00      	add	r7, sp, #0
 800059a:	6078      	str	r0, [r7, #4]
 800059c:	4a0d      	ldr	r2, [pc, #52]	@ (80005d4 <systick_init+0x40>)
 800059e:	687b      	ldr	r3, [r7, #4]
 80005a0:	3b01      	subs	r3, #1
 80005a2:	6053      	str	r3, [r2, #4]
 80005a4:	4b0b      	ldr	r3, [pc, #44]	@ (80005d4 <systick_init+0x40>)
 80005a6:	2200      	movs	r2, #0
 80005a8:	609a      	str	r2, [r3, #8]
 80005aa:	4a0a      	ldr	r2, [pc, #40]	@ (80005d4 <systick_init+0x40>)
 80005ac:	6813      	ldr	r3, [r2, #0]
 80005ae:	f043 0304 	orr.w	r3, r3, #4
 80005b2:	6013      	str	r3, [r2, #0]
 80005b4:	4a07      	ldr	r2, [pc, #28]	@ (80005d4 <systick_init+0x40>)
 80005b6:	6813      	ldr	r3, [r2, #0]
 80005b8:	f043 0302 	orr.w	r3, r3, #2
 80005bc:	6013      	str	r3, [r2, #0]
 80005be:	4a05      	ldr	r2, [pc, #20]	@ (80005d4 <systick_init+0x40>)
 80005c0:	6813      	ldr	r3, [r2, #0]
 80005c2:	f043 0301 	orr.w	r3, r3, #1
 80005c6:	6013      	str	r3, [r2, #0]
 80005c8:	bf00      	nop
 80005ca:	370c      	adds	r7, #12
 80005cc:	46bd      	mov	sp, r7
 80005ce:	bc80      	pop	{r7}
 80005d0:	4770      	bx	lr
 80005d2:	bf00      	nop
 80005d4:	e000e010 	.word	0xe000e010

080005d8 <systick_reset>:
 80005d8:	b480      	push	{r7}
 80005da:	af00      	add	r7, sp, #0
 80005dc:	4b03      	ldr	r3, [pc, #12]	@ (80005ec <systick_reset+0x14>)
 80005de:	2200      	movs	r2, #0
 80005e0:	601a      	str	r2, [r3, #0]
 80005e2:	bf00      	nop
 80005e4:	46bd      	mov	sp, r7
 80005e6:	bc80      	pop	{r7}
 80005e8:	4770      	bx	lr
 80005ea:	bf00      	nop
 80005ec:	2000002c 	.word	0x2000002c

080005f0 <systick_get_ms>:
 80005f0:	b480      	push	{r7}
 80005f2:	af00      	add	r7, sp, #0
 80005f4:	4b02      	ldr	r3, [pc, #8]	@ (8000600 <systick_get_ms+0x10>)
 80005f6:	681b      	ldr	r3, [r3, #0]
 80005f8:	4618      	mov	r0, r3
 80005fa:	46bd      	mov	sp, r7
 80005fc:	bc80      	pop	{r7}
 80005fe:	4770      	bx	lr
 8000600:	2000002c 	.word	0x2000002c

08000604 <SetBaudRate>:
 8000604:	b480      	push	{r7}
 8000606:	b085      	sub	sp, #20
 8000608:	af00      	add	r7, sp, #0
 800060a:	6078      	str	r0, [r7, #4]
 800060c:	687b      	ldr	r3, [r7, #4]
 800060e:	2b00      	cmp	r3, #0
 8000610:	d101      	bne.n	8000616 <SetBaudRate+0x12>
 8000612:	2301      	movs	r3, #1
 8000614:	e01d      	b.n	8000652 <SetBaudRate+0x4e>
 8000616:	4b11      	ldr	r3, [pc, #68]	@ (800065c <SetBaudRate+0x58>)
 8000618:	60fb      	str	r3, [r7, #12]
 800061a:	687b      	ldr	r3, [r7, #4]
 800061c:	085a      	lsrs	r2, r3, #1
 800061e:	68fb      	ldr	r3, [r7, #12]
 8000620:	441a      	add	r2, r3
 8000622:	687b      	ldr	r3, [r7, #4]
 8000624:	fbb2 f3f3 	udiv	r3, r2, r3
 8000628:	60bb      	str	r3, [r7, #8]
 800062a:	68bb      	ldr	r3, [r7, #8]
 800062c:	091b      	lsrs	r3, r3, #4
 800062e:	4a0c      	ldr	r2, [pc, #48]	@ (8000660 <SetBaudRate+0x5c>)
 8000630:	f3c3 030b 	ubfx	r3, r3, #0, #12
 8000634:	b299      	uxth	r1, r3
 8000636:	6893      	ldr	r3, [r2, #8]
 8000638:	f361 130f 	bfi	r3, r1, #4, #12
 800063c:	6093      	str	r3, [r2, #8]
 800063e:	4a08      	ldr	r2, [pc, #32]	@ (8000660 <SetBaudRate+0x5c>)
 8000640:	68bb      	ldr	r3, [r7, #8]
 8000642:	f003 030f 	and.w	r3, r3, #15
 8000646:	b2d9      	uxtb	r1, r3
 8000648:	6893      	ldr	r3, [r2, #8]
 800064a:	f361 0303 	bfi	r3, r1, #0, #4
 800064e:	6093      	str	r3, [r2, #8]
 8000650:	2300      	movs	r3, #0
 8000652:	4618      	mov	r0, r3
 8000654:	3714      	adds	r7, #20
 8000656:	46bd      	mov	sp, r7
 8000658:	bc80      	pop	{r7}
 800065a:	4770      	bx	lr
 800065c:	044aa200 	.word	0x044aa200
 8000660:	40013800 	.word	0x40013800

08000664 <UART1_INIT>:
 8000664:	b580      	push	{r7, lr}
 8000666:	b082      	sub	sp, #8
 8000668:	af00      	add	r7, sp, #0
 800066a:	6078      	str	r0, [r7, #4]
 800066c:	4a27      	ldr	r2, [pc, #156]	@ (800070c <UART1_INIT+0xa8>)
 800066e:	6993      	ldr	r3, [r2, #24]
 8000670:	f423 4380 	bic.w	r3, r3, #16384	@ 0x4000
 8000674:	6193      	str	r3, [r2, #24]
 8000676:	4a25      	ldr	r2, [pc, #148]	@ (800070c <UART1_INIT+0xa8>)
 8000678:	6993      	ldr	r3, [r2, #24]
 800067a:	f443 4380 	orr.w	r3, r3, #16384	@ 0x4000
 800067e:	6193      	str	r3, [r2, #24]
 8000680:	4a22      	ldr	r2, [pc, #136]	@ (800070c <UART1_INIT+0xa8>)
 8000682:	6993      	ldr	r3, [r2, #24]
 8000684:	f023 0304 	bic.w	r3, r3, #4
 8000688:	6193      	str	r3, [r2, #24]
 800068a:	4a20      	ldr	r2, [pc, #128]	@ (800070c <UART1_INIT+0xa8>)
 800068c:	6993      	ldr	r3, [r2, #24]
 800068e:	f043 0304 	orr.w	r3, r3, #4
 8000692:	6193      	str	r3, [r2, #24]
 8000694:	4a1e      	ldr	r2, [pc, #120]	@ (8000710 <UART1_INIT+0xac>)
 8000696:	6853      	ldr	r3, [r2, #4]
 8000698:	2102      	movs	r1, #2
 800069a:	f361 1387 	bfi	r3, r1, #6, #2
 800069e:	6053      	str	r3, [r2, #4]
 80006a0:	4a1b      	ldr	r2, [pc, #108]	@ (8000710 <UART1_INIT+0xac>)
 80006a2:	6853      	ldr	r3, [r2, #4]
 80006a4:	f043 0330 	orr.w	r3, r3, #48	@ 0x30
 80006a8:	6053      	str	r3, [r2, #4]
 80006aa:	4a19      	ldr	r2, [pc, #100]	@ (8000710 <UART1_INIT+0xac>)
 80006ac:	6853      	ldr	r3, [r2, #4]
 80006ae:	2101      	movs	r1, #1
 80006b0:	f361 238b 	bfi	r3, r1, #10, #2
 80006b4:	6053      	str	r3, [r2, #4]
 80006b6:	4a16      	ldr	r2, [pc, #88]	@ (8000710 <UART1_INIT+0xac>)
 80006b8:	6853      	ldr	r3, [r2, #4]
 80006ba:	f423 7340 	bic.w	r3, r3, #768	@ 0x300
 80006be:	6053      	str	r3, [r2, #4]
 80006c0:	4a14      	ldr	r2, [pc, #80]	@ (8000714 <UART1_INIT+0xb0>)
 80006c2:	68d3      	ldr	r3, [r2, #12]
 80006c4:	f423 5300 	bic.w	r3, r3, #8192	@ 0x2000
 80006c8:	60d3      	str	r3, [r2, #12]
 80006ca:	4a12      	ldr	r2, [pc, #72]	@ (8000714 <UART1_INIT+0xb0>)
 80006cc:	68d3      	ldr	r3, [r2, #12]
 80006ce:	f023 0308 	bic.w	r3, r3, #8
 80006d2:	60d3      	str	r3, [r2, #12]
 80006d4:	4a0f      	ldr	r2, [pc, #60]	@ (8000714 <UART1_INIT+0xb0>)
 80006d6:	68d3      	ldr	r3, [r2, #12]
 80006d8:	f043 0308 	orr.w	r3, r3, #8
 80006dc:	60d3      	str	r3, [r2, #12]
 80006de:	4a0d      	ldr	r2, [pc, #52]	@ (8000714 <UART1_INIT+0xb0>)
 80006e0:	68d3      	ldr	r3, [r2, #12]
 80006e2:	f023 0304 	bic.w	r3, r3, #4
 80006e6:	60d3      	str	r3, [r2, #12]
 80006e8:	4a0a      	ldr	r2, [pc, #40]	@ (8000714 <UART1_INIT+0xb0>)
 80006ea:	68d3      	ldr	r3, [r2, #12]
 80006ec:	f043 0304 	orr.w	r3, r3, #4
 80006f0:	60d3      	str	r3, [r2, #12]
 80006f2:	6878      	ldr	r0, [r7, #4]
 80006f4:	f7ff ff86 	bl	8000604 <SetBaudRate>
 80006f8:	4a06      	ldr	r2, [pc, #24]	@ (8000714 <UART1_INIT+0xb0>)
 80006fa:	68d3      	ldr	r3, [r2, #12]
 80006fc:	f443 5300 	orr.w	r3, r3, #8192	@ 0x2000
 8000700:	60d3      	str	r3, [r2, #12]
 8000702:	2300      	movs	r3, #0
 8000704:	4618      	mov	r0, r3
 8000706:	3708      	adds	r7, #8
 8000708:	46bd      	mov	sp, r7
 800070a:	bd80      	pop	{r7, pc}
 800070c:	40021000 	.word	0x40021000
 8000710:	40010800 	.word	0x40010800
 8000714:	40013800 	.word	0x40013800

08000718 <SendByte>:
 8000718:	b480      	push	{r7}
 800071a:	b083      	sub	sp, #12
 800071c:	af00      	add	r7, sp, #0
 800071e:	4603      	mov	r3, r0
 8000720:	71fb      	strb	r3, [r7, #7]
 8000722:	bf00      	nop
 8000724:	4b0a      	ldr	r3, [pc, #40]	@ (8000750 <SendByte+0x38>)
 8000726:	681b      	ldr	r3, [r3, #0]
 8000728:	f3c3 13c0 	ubfx	r3, r3, #7, #1
 800072c:	b2db      	uxtb	r3, r3
 800072e:	2b00      	cmp	r3, #0
 8000730:	d0f8      	beq.n	8000724 <SendByte+0xc>
 8000732:	4a07      	ldr	r2, [pc, #28]	@ (8000750 <SendByte+0x38>)
 8000734:	79fb      	ldrb	r3, [r7, #7]
 8000736:	f3c3 0308 	ubfx	r3, r3, #0, #9
 800073a:	b299      	uxth	r1, r3
 800073c:	6853      	ldr	r3, [r2, #4]
 800073e:	f361 0308 	bfi	r3, r1, #0, #9
 8000742:	6053      	str	r3, [r2, #4]
 8000744:	2300      	movs	r3, #0
 8000746:	4618      	mov	r0, r3
 8000748:	370c      	adds	r7, #12
 800074a:	46bd      	mov	sp, r7
 800074c:	bc80      	pop	{r7}
 800074e:	4770      	bx	lr
 8000750:	40013800 	.word	0x40013800

08000754 <uart_recv>:
 8000754:	b480      	push	{r7}
 8000756:	b083      	sub	sp, #12
 8000758:	af00      	add	r7, sp, #0
 800075a:	bf00      	nop
 800075c:	4b09      	ldr	r3, [pc, #36]	@ (8000784 <uart_recv+0x30>)
 800075e:	681b      	ldr	r3, [r3, #0]
 8000760:	f3c3 1340 	ubfx	r3, r3, #5, #1
 8000764:	b2db      	uxtb	r3, r3
 8000766:	2b00      	cmp	r3, #0
 8000768:	d0f8      	beq.n	800075c <uart_recv+0x8>
 800076a:	4b06      	ldr	r3, [pc, #24]	@ (8000784 <uart_recv+0x30>)
 800076c:	685b      	ldr	r3, [r3, #4]
 800076e:	f3c3 0308 	ubfx	r3, r3, #0, #9
 8000772:	b29b      	uxth	r3, r3
 8000774:	71fb      	strb	r3, [r7, #7]
 8000776:	79fb      	ldrb	r3, [r7, #7]
 8000778:	4618      	mov	r0, r3
 800077a:	370c      	adds	r7, #12
 800077c:	46bd      	mov	sp, r7
 800077e:	bc80      	pop	{r7}
 8000780:	4770      	bx	lr
 8000782:	bf00      	nop
 8000784:	40013800 	.word	0x40013800

08000788 <jump_to_application>:
#include"HEX_STRUCTURES.h"
#include "stm32f1xx.h"  // Or "core_cm3.h" if using raw CMSIS
#define APP_ADDRESS 0x08004000
#define SCB_VTOR (*(volatile uint32_t*)0xE000ED08)
#define DELAY_VALUE_ADDR   0x0801FC00
void jump_to_application(void) {
 8000788:	b580      	push	{r7, lr}
 800078a:	b084      	sub	sp, #16
 800078c:	af00      	add	r7, sp, #0
    // 1. Read the MSP and Reset Handler from application vector table
    uint32_t app_stack = *(volatile uint32_t*)(APP_ADDRESS);
 800078e:	4b12      	ldr	r3, [pc, #72]	@ (80007d8 <jump_to_application+0x50>)
 8000790:	681b      	ldr	r3, [r3, #0]
 8000792:	60fb      	str	r3, [r7, #12]
    uint32_t app_reset = *(volatile uint32_t*)(APP_ADDRESS + 4);
 8000794:	4b11      	ldr	r3, [pc, #68]	@ (80007dc <jump_to_application+0x54>)
 8000796:	681b      	ldr	r3, [r3, #0]
 8000798:	60bb      	str	r3, [r7, #8]

    // 2. Set the Vector Table base
    SCB->VTOR = APP_ADDRESS;
 800079a:	4b11      	ldr	r3, [pc, #68]	@ (80007e0 <jump_to_application+0x58>)
 800079c:	7a1a      	ldrb	r2, [r3, #8]
 800079e:	2200      	movs	r2, #0
 80007a0:	721a      	strb	r2, [r3, #8]
 80007a2:	7a5a      	ldrb	r2, [r3, #9]
 80007a4:	2200      	movs	r2, #0
 80007a6:	f042 0240 	orr.w	r2, r2, #64	@ 0x40
 80007aa:	725a      	strb	r2, [r3, #9]
 80007ac:	7a9a      	ldrb	r2, [r3, #10]
 80007ae:	2200      	movs	r2, #0
 80007b0:	729a      	strb	r2, [r3, #10]
 80007b2:	7ada      	ldrb	r2, [r3, #11]
 80007b4:	2200      	movs	r2, #0
 80007b6:	f042 0208 	orr.w	r2, r2, #8
 80007ba:	72da      	strb	r2, [r3, #11]
 80007bc:	68fb      	ldr	r3, [r7, #12]
 80007be:	603b      	str	r3, [r7, #0]
  \details Assigns the given value to the Main Stack Pointer (MSP).
  \param [in]    topOfMainStack  Main Stack Pointer value to set
 */
__STATIC_FORCEINLINE void __set_MSP(uint32_t topOfMainStack)
{
  __ASM volatile ("MSR msp, %0" : : "r" (topOfMainStack) : );
 80007c0:	683b      	ldr	r3, [r7, #0]
 80007c2:	f383 8808 	msr	MSP, r3
}
 80007c6:	bf00      	nop

    // 3. Set the Main Stack Pointer
    __set_MSP(app_stack);

    // 4. Jump to the application's Reset Handler
    void (*app_entry)(void) = (void*)app_reset;
 80007c8:	68bb      	ldr	r3, [r7, #8]
 80007ca:	607b      	str	r3, [r7, #4]
    app_entry();
 80007cc:	687b      	ldr	r3, [r7, #4]
 80007ce:	4798      	blx	r3
}
 80007d0:	bf00      	nop
 80007d2:	3710      	adds	r7, #16
 80007d4:	46bd      	mov	sp, r7
 80007d6:	bd80      	pop	{r7, pc}
 80007d8:	08004000 	.word	0x08004000
 80007dc:	08004004 	.word	0x08004004
 80007e0:	e000ed00 	.word	0xe000ed00

080007e4 <main>:
#define CMD_DATA   0x02
#define CMD_END    0x03
uint32_t complete_check_sum=0;
uint32_t SYSTEM_CLOCK=0;
uint32_t now=0;
int main(){
 80007e4:	b590      	push	{r4, r7, lr}
 80007e6:	b087      	sub	sp, #28
 80007e8:	af00      	add	r7, sp, #0
	RCC_SYSTEM_CLOCK_HSEPLL_72MHZ();
 80007ea:	f7ff fe8f 	bl	800050c <RCC_SYSTEM_CLOCK_HSEPLL_72MHZ>
	systick.init(72000);
 80007ee:	4b96      	ldr	r3, [pc, #600]	@ (8000a48 <main+0x264>)
 80007f0:	681b      	ldr	r3, [r3, #0]
 80007f2:	4896      	ldr	r0, [pc, #600]	@ (8000a4c <main+0x268>)
 80007f4:	4798      	blx	r3
    systick.reset();
 80007f6:	4b94      	ldr	r3, [pc, #592]	@ (8000a48 <main+0x264>)
 80007f8:	685b      	ldr	r3, [r3, #4]
 80007fa:	4798      	blx	r3
	SYSTEM_CLOCK=0;
 80007fc:	4b94      	ldr	r3, [pc, #592]	@ (8000a50 <main+0x26c>)
 80007fe:	2200      	movs	r2, #0
 8000800:	601a      	str	r2, [r3, #0]
	LED_INIT();
 8000802:	f7ff fe11 	bl	8000428 <LED_INIT>
	STATUS_LEDS_APP_OR_BOOT_INIT();
 8000806:	f7ff fe37 	bl	8000478 <STATUS_LEDS_APP_OR_BOOT_INIT>
	  if (RCC->CSR & RCC_CSR_IWDGRSTF) {
 800080a:	4b92      	ldr	r3, [pc, #584]	@ (8000a54 <main+0x270>)
 800080c:	6a5b      	ldr	r3, [r3, #36]	@ 0x24
 800080e:	f003 5300 	and.w	r3, r3, #536870912	@ 0x20000000
 8000812:	2b00      	cmp	r3, #0
 8000814:	d00c      	beq.n	8000830 <main+0x4c>
		  RY_GPIOC->ODR.BITS.ODR13=1;
 8000816:	4a90      	ldr	r2, [pc, #576]	@ (8000a58 <main+0x274>)
 8000818:	68d3      	ldr	r3, [r2, #12]
 800081a:	f443 5300 	orr.w	r3, r3, #8192	@ 0x2000
 800081e:	60d3      	str	r3, [r2, #12]
		   RCC->CSR |= RCC_CSR_RMVF;
 8000820:	4b8c      	ldr	r3, [pc, #560]	@ (8000a54 <main+0x270>)
 8000822:	6a5b      	ldr	r3, [r3, #36]	@ 0x24
 8000824:	4a8b      	ldr	r2, [pc, #556]	@ (8000a54 <main+0x270>)
 8000826:	f043 7380 	orr.w	r3, r3, #16777216	@ 0x1000000
 800082a:	6253      	str	r3, [r2, #36]	@ 0x24
		   while(1){
 800082c:	bf00      	nop
 800082e:	e7fd      	b.n	800082c <main+0x48>

		   }
	  }
	UART1_INIT(BAUD_RATE);
 8000830:	f44f 30e1 	mov.w	r0, #115200	@ 0x1c200
 8000834:	f7ff ff16 	bl	8000664 <UART1_INIT>
	while(1){
		while (systick.get_ms()< 10000)
 8000838:	e0f4      	b.n	8000a24 <main+0x240>
		{
			//TOGGLE_LED();
            if((RY_USART1->SR.BITS.RXNE)){
 800083a:	4b88      	ldr	r3, [pc, #544]	@ (8000a5c <main+0x278>)
 800083c:	681b      	ldr	r3, [r3, #0]
 800083e:	f3c3 1340 	ubfx	r3, r3, #5, #1
 8000842:	b2db      	uxtb	r3, r3
 8000844:	2b00      	cmp	r3, #0
 8000846:	f000 80ed 	beq.w	8000a24 <main+0x240>
       		 uint8_t cmd = uart_recv();
 800084a:	f7ff ff83 	bl	8000754 <uart_recv>
 800084e:	4603      	mov	r3, r0
 8000850:	74fb      	strb	r3, [r7, #19]
                  if(cmd == CMD_HELLO) {
 8000852:	7cfb      	ldrb	r3, [r7, #19]
 8000854:	2b55      	cmp	r3, #85	@ 0x55
 8000856:	d103      	bne.n	8000860 <main+0x7c>
               	SendByte(CMD_ACK);
 8000858:	20aa      	movs	r0, #170	@ 0xaa
 800085a:	f7ff ff5d 	bl	8000718 <SendByte>
 800085e:	e0e1      	b.n	8000a24 <main+0x240>
               }
               else if (cmd == CMD_BEGIN) {
 8000860:	7cfb      	ldrb	r3, [r7, #19]
 8000862:	2b01      	cmp	r3, #1
 8000864:	d109      	bne.n	800087a <main+0x96>
            	   record_index=0;
 8000866:	4b7e      	ldr	r3, [pc, #504]	@ (8000a60 <main+0x27c>)
 8000868:	2200      	movs	r2, #0
 800086a:	801a      	strh	r2, [r3, #0]
            	   complete_check_sum=0;
 800086c:	4b7d      	ldr	r3, [pc, #500]	@ (8000a64 <main+0x280>)
 800086e:	2200      	movs	r2, #0
 8000870:	601a      	str	r2, [r3, #0]
                   SendByte(CMD_ACK);
 8000872:	20aa      	movs	r0, #170	@ 0xaa
 8000874:	f7ff ff50 	bl	8000718 <SendByte>
 8000878:	e0d4      	b.n	8000a24 <main+0x240>
               }
               else if (cmd == CMD_DATA) {
 800087a:	7cfb      	ldrb	r3, [r7, #19]
 800087c:	2b02      	cmp	r3, #2
 800087e:	d17f      	bne.n	8000980 <main+0x19c>
            	  if(record_index>=MAX_RECORDS){
 8000880:	4b77      	ldr	r3, [pc, #476]	@ (8000a60 <main+0x27c>)
 8000882:	881b      	ldrh	r3, [r3, #0]
 8000884:	f240 3259 	movw	r2, #857	@ 0x359
 8000888:	4293      	cmp	r3, r2
 800088a:	d908      	bls.n	800089e <main+0xba>
                      SendByte(CMD_NACK);
 800088c:	20ff      	movs	r0, #255	@ 0xff
 800088e:	f7ff ff43 	bl	8000718 <SendByte>
                      RY_GPIOC->ODR.BITS.ODR13=1;
 8000892:	4a71      	ldr	r2, [pc, #452]	@ (8000a58 <main+0x274>)
 8000894:	68d3      	ldr	r3, [r2, #12]
 8000896:	f443 5300 	orr.w	r3, r3, #8192	@ 0x2000
 800089a:	60d3      	str	r3, [r2, #12]
                      continue;
 800089c:	e0c2      	b.n	8000a24 <main+0x240>
            	  }
            	  HEX_STRUCTURE *rec = &hex_records[record_index];
 800089e:	4b70      	ldr	r3, [pc, #448]	@ (8000a60 <main+0x27c>)
 80008a0:	881b      	ldrh	r3, [r3, #0]
 80008a2:	461a      	mov	r2, r3
 80008a4:	2316      	movs	r3, #22
 80008a6:	fb02 f303 	mul.w	r3, r2, r3
 80008aa:	4a6f      	ldr	r2, [pc, #444]	@ (8000a68 <main+0x284>)
 80008ac:	4413      	add	r3, r2
 80008ae:	607b      	str	r3, [r7, #4]
            	  rec->address |=((((uint32_t)uart_recv()<<8))|((uint32_t)uart_recv()<<0));
 80008b0:	f7ff ff50 	bl	8000754 <uart_recv>
 80008b4:	4603      	mov	r3, r0
 80008b6:	021c      	lsls	r4, r3, #8
 80008b8:	f7ff ff4c 	bl	8000754 <uart_recv>
 80008bc:	4603      	mov	r3, r0
 80008be:	ea44 0203 	orr.w	r2, r4, r3
 80008c2:	687b      	ldr	r3, [r7, #4]
 80008c4:	f8d3 3012 	ldr.w	r3, [r3, #18]
 80008c8:	431a      	orrs	r2, r3
 80008ca:	687b      	ldr	r3, [r7, #4]
 80008cc:	f8c3 2012 	str.w	r2, [r3, #18]
            	  rec->Byte_count= uart_recv();
 80008d0:	f7ff ff40 	bl	8000754 <uart_recv>
 80008d4:	4603      	mov	r3, r0
 80008d6:	461a      	mov	r2, r3
 80008d8:	687b      	ldr	r3, [r7, #4]
 80008da:	701a      	strb	r2, [r3, #0]
            	  uint8_t checksum = rec->Byte_count +
 80008dc:	687b      	ldr	r3, [r7, #4]
 80008de:	781a      	ldrb	r2, [r3, #0]
            	                                 ((rec->address >> 8) & 0xFF) +
 80008e0:	687b      	ldr	r3, [r7, #4]
 80008e2:	f8d3 3012 	ldr.w	r3, [r3, #18]
 80008e6:	0a1b      	lsrs	r3, r3, #8
            	  uint8_t checksum = rec->Byte_count +
 80008e8:	b2db      	uxtb	r3, r3
 80008ea:	4413      	add	r3, r2
 80008ec:	b2da      	uxtb	r2, r3
            	                                 (rec->address & 0xFF);
 80008ee:	687b      	ldr	r3, [r7, #4]
 80008f0:	f8d3 3012 	ldr.w	r3, [r3, #18]
            	                                 ((rec->address >> 8) & 0xFF) +
 80008f4:	b2db      	uxtb	r3, r3
            	  uint8_t checksum = rec->Byte_count +
 80008f6:	4413      	add	r3, r2
 80008f8:	75fb      	strb	r3, [r7, #23]
                  for (uint8_t i = 0; i < rec->Byte_count; i++) {
 80008fa:	2300      	movs	r3, #0
 80008fc:	75bb      	strb	r3, [r7, #22]
 80008fe:	e011      	b.n	8000924 <main+0x140>
					  rec->data[i] = uart_recv();
 8000900:	7dbc      	ldrb	r4, [r7, #22]
 8000902:	f7ff ff27 	bl	8000754 <uart_recv>
 8000906:	4603      	mov	r3, r0
 8000908:	461a      	mov	r2, r3
 800090a:	687b      	ldr	r3, [r7, #4]
 800090c:	4423      	add	r3, r4
 800090e:	705a      	strb	r2, [r3, #1]
					  checksum += rec->data[i];
 8000910:	7dbb      	ldrb	r3, [r7, #22]
 8000912:	687a      	ldr	r2, [r7, #4]
 8000914:	4413      	add	r3, r2
 8000916:	785a      	ldrb	r2, [r3, #1]
 8000918:	7dfb      	ldrb	r3, [r7, #23]
 800091a:	4413      	add	r3, r2
 800091c:	75fb      	strb	r3, [r7, #23]
                  for (uint8_t i = 0; i < rec->Byte_count; i++) {
 800091e:	7dbb      	ldrb	r3, [r7, #22]
 8000920:	3301      	adds	r3, #1
 8000922:	75bb      	strb	r3, [r7, #22]
 8000924:	687b      	ldr	r3, [r7, #4]
 8000926:	781b      	ldrb	r3, [r3, #0]
 8000928:	7dba      	ldrb	r2, [r7, #22]
 800092a:	429a      	cmp	r2, r3
 800092c:	d3e8      	bcc.n	8000900 <main+0x11c>
				  }
            	  checksum = (~checksum) + 1;
 800092e:	7dfb      	ldrb	r3, [r7, #23]
 8000930:	425b      	negs	r3, r3
 8000932:	75fb      	strb	r3, [r7, #23]
            	 rec->check_sum = uart_recv();
 8000934:	f7ff ff0e 	bl	8000754 <uart_recv>
 8000938:	4603      	mov	r3, r0
 800093a:	461a      	mov	r2, r3
 800093c:	687b      	ldr	r3, [r7, #4]
 800093e:	745a      	strb	r2, [r3, #17]
				  if (checksum == rec->check_sum) {
 8000940:	687b      	ldr	r3, [r7, #4]
 8000942:	7c5b      	ldrb	r3, [r3, #17]
 8000944:	7dfa      	ldrb	r2, [r7, #23]
 8000946:	429a      	cmp	r2, r3
 8000948:	d10f      	bne.n	800096a <main+0x186>
					  complete_check_sum += checksum;
 800094a:	7dfa      	ldrb	r2, [r7, #23]
 800094c:	4b45      	ldr	r3, [pc, #276]	@ (8000a64 <main+0x280>)
 800094e:	681b      	ldr	r3, [r3, #0]
 8000950:	4413      	add	r3, r2
 8000952:	4a44      	ldr	r2, [pc, #272]	@ (8000a64 <main+0x280>)
 8000954:	6013      	str	r3, [r2, #0]
					  record_index++;
 8000956:	4b42      	ldr	r3, [pc, #264]	@ (8000a60 <main+0x27c>)
 8000958:	881b      	ldrh	r3, [r3, #0]
 800095a:	3301      	adds	r3, #1
 800095c:	b29a      	uxth	r2, r3
 800095e:	4b40      	ldr	r3, [pc, #256]	@ (8000a60 <main+0x27c>)
 8000960:	801a      	strh	r2, [r3, #0]
					  SendByte(CMD_ACK);
 8000962:	20aa      	movs	r0, #170	@ 0xaa
 8000964:	f7ff fed8 	bl	8000718 <SendByte>
 8000968:	e05c      	b.n	8000a24 <main+0x240>
				  } else {
					  RY_GPIOC->ODR.BITS.ODR13=1;
 800096a:	4a3b      	ldr	r2, [pc, #236]	@ (8000a58 <main+0x274>)
 800096c:	68d3      	ldr	r3, [r2, #12]
 800096e:	f443 5300 	orr.w	r3, r3, #8192	@ 0x2000
 8000972:	60d3      	str	r3, [r2, #12]
					  SendByte(CMD_NACK);
 8000974:	20ff      	movs	r0, #255	@ 0xff
 8000976:	f7ff fecf 	bl	8000718 <SendByte>
					  jump_to_application();
 800097a:	f7ff ff05 	bl	8000788 <jump_to_application>
 800097e:	e051      	b.n	8000a24 <main+0x240>
				  }
               }
               else if (cmd == CMD_END) {
 8000980:	7cfb      	ldrb	r3, [r7, #19]
 8000982:	2b03      	cmp	r3, #3
 8000984:	d14e      	bne.n	8000a24 <main+0x240>
            	   if(complete_check_sum==(((((uart_recv()<<24))|(uart_recv()<<16))|(uart_recv()<<8))|(uart_recv()<<0))){
 8000986:	f7ff fee5 	bl	8000754 <uart_recv>
 800098a:	4603      	mov	r3, r0
 800098c:	061c      	lsls	r4, r3, #24
 800098e:	f7ff fee1 	bl	8000754 <uart_recv>
 8000992:	4603      	mov	r3, r0
 8000994:	041b      	lsls	r3, r3, #16
 8000996:	431c      	orrs	r4, r3
 8000998:	f7ff fedc 	bl	8000754 <uart_recv>
 800099c:	4603      	mov	r3, r0
 800099e:	021b      	lsls	r3, r3, #8
 80009a0:	431c      	orrs	r4, r3
 80009a2:	f7ff fed7 	bl	8000754 <uart_recv>
 80009a6:	4603      	mov	r3, r0
 80009a8:	4323      	orrs	r3, r4
 80009aa:	4a2e      	ldr	r2, [pc, #184]	@ (8000a64 <main+0x280>)
 80009ac:	6812      	ldr	r2, [r2, #0]
 80009ae:	4293      	cmp	r3, r2
 80009b0:	d12c      	bne.n	8000a0c <main+0x228>
                      	SendByte(CMD_ACK);
 80009b2:	20aa      	movs	r0, #170	@ 0xaa
 80009b4:	f7ff feb0 	bl	8000718 <SendByte>
                      	RY_FLASH_EraseAppRegion();
 80009b8:	f7ff fd14 	bl	80003e4 <RY_FLASH_EraseAppRegion>
                        for (uint16_t i = 0; i < record_index; i++) {
 80009bc:	2300      	movs	r3, #0
 80009be:	82bb      	strh	r3, [r7, #20]
 80009c0:	e017      	b.n	80009f2 <main+0x20e>
                            HEX_STRUCTURE *rec = &hex_records[i];
 80009c2:	8abb      	ldrh	r3, [r7, #20]
 80009c4:	2216      	movs	r2, #22
 80009c6:	fb02 f303 	mul.w	r3, r2, r3
 80009ca:	4a27      	ldr	r2, [pc, #156]	@ (8000a68 <main+0x284>)
 80009cc:	4413      	add	r3, r2
 80009ce:	60fb      	str	r3, [r7, #12]
                            uint32_t absolute_address = 0x08000000 + rec->address;
 80009d0:	68fb      	ldr	r3, [r7, #12]
 80009d2:	f8d3 3012 	ldr.w	r3, [r3, #18]
 80009d6:	f103 6300 	add.w	r3, r3, #134217728	@ 0x8000000
 80009da:	60bb      	str	r3, [r7, #8]
                            RY_FLASH_ProgramBuffer(absolute_address, rec->data, rec->Byte_count);
 80009dc:	68fb      	ldr	r3, [r7, #12]
 80009de:	1c59      	adds	r1, r3, #1
 80009e0:	68fb      	ldr	r3, [r7, #12]
 80009e2:	781b      	ldrb	r3, [r3, #0]
 80009e4:	461a      	mov	r2, r3
 80009e6:	68b8      	ldr	r0, [r7, #8]
 80009e8:	f7ff fca4 	bl	8000334 <RY_FLASH_ProgramBuffer>
                        for (uint16_t i = 0; i < record_index; i++) {
 80009ec:	8abb      	ldrh	r3, [r7, #20]
 80009ee:	3301      	adds	r3, #1
 80009f0:	82bb      	strh	r3, [r7, #20]
 80009f2:	4b1b      	ldr	r3, [pc, #108]	@ (8000a60 <main+0x27c>)
 80009f4:	881b      	ldrh	r3, [r3, #0]
 80009f6:	8aba      	ldrh	r2, [r7, #20]
 80009f8:	429a      	cmp	r2, r3
 80009fa:	d3e2      	bcc.n	80009c2 <main+0x1de>
                        }
                        RY_GPIOC->ODR.BITS.ODR14=1;
 80009fc:	4a16      	ldr	r2, [pc, #88]	@ (8000a58 <main+0x274>)
 80009fe:	68d3      	ldr	r3, [r2, #12]
 8000a00:	f443 4380 	orr.w	r3, r3, #16384	@ 0x4000
 8000a04:	60d3      	str	r3, [r2, #12]
                       jump_to_application();  // jump to app at 0x08004000
 8000a06:	f7ff febf 	bl	8000788 <jump_to_application>
 8000a0a:	e00b      	b.n	8000a24 <main+0x240>
            	   }else{
            		    RY_GPIOC->ODR.BITS.ODR13=1;
 8000a0c:	4a12      	ldr	r2, [pc, #72]	@ (8000a58 <main+0x274>)
 8000a0e:	68d3      	ldr	r3, [r2, #12]
 8000a10:	f443 5300 	orr.w	r3, r3, #8192	@ 0x2000
 8000a14:	60d3      	str	r3, [r2, #12]
                     	SendByte(CMD_NACK);
 8000a16:	20ff      	movs	r0, #255	@ 0xff
 8000a18:	f7ff fe7e 	bl	8000718 <SendByte>
                     	TOGGLE_LED();
 8000a1c:	f7ff fd1e 	bl	800045c <TOGGLE_LED>
                     	jump_to_application();
 8000a20:	f7ff feb2 	bl	8000788 <jump_to_application>
		while (systick.get_ms()< 10000)
 8000a24:	4b08      	ldr	r3, [pc, #32]	@ (8000a48 <main+0x264>)
 8000a26:	689b      	ldr	r3, [r3, #8]
 8000a28:	4798      	blx	r3
 8000a2a:	4603      	mov	r3, r0
 8000a2c:	f242 720f 	movw	r2, #9999	@ 0x270f
 8000a30:	4293      	cmp	r3, r2
 8000a32:	f67f af02 	bls.w	800083a <main+0x56>
            	   }
               }
            }
		}
		RY_GPIOC->ODR.BITS.ODR14=1;
 8000a36:	4a08      	ldr	r2, [pc, #32]	@ (8000a58 <main+0x274>)
 8000a38:	68d3      	ldr	r3, [r2, #12]
 8000a3a:	f443 4380 	orr.w	r3, r3, #16384	@ 0x4000
 8000a3e:	60d3      	str	r3, [r2, #12]
        jump_to_application();
 8000a40:	f7ff fea2 	bl	8000788 <jump_to_application>
		while (systick.get_ms()< 10000)
 8000a44:	e7ee      	b.n	8000a24 <main+0x240>
 8000a46:	bf00      	nop
 8000a48:	20000000 	.word	0x20000000
 8000a4c:	00011940 	.word	0x00011940
 8000a50:	200049f4 	.word	0x200049f4
 8000a54:	40021000 	.word	0x40021000
 8000a58:	40011000 	.word	0x40011000
 8000a5c:	40013800 	.word	0x40013800
 8000a60:	20000030 	.word	0x20000030
 8000a64:	200049f0 	.word	0x200049f0
 8000a68:	20000034 	.word	0x20000034

08000a6c <NMI_Handler>:
 8000a6c:	b480      	push	{r7}
 8000a6e:	af00      	add	r7, sp, #0
 8000a70:	bf00      	nop
 8000a72:	e7fd      	b.n	8000a70 <NMI_Handler+0x4>

08000a74 <HardFault_Handler>:
 8000a74:	b480      	push	{r7}
 8000a76:	af00      	add	r7, sp, #0
 8000a78:	bf00      	nop
 8000a7a:	e7fd      	b.n	8000a78 <HardFault_Handler+0x4>

08000a7c <MemManage_Handler>:
 8000a7c:	b480      	push	{r7}
 8000a7e:	af00      	add	r7, sp, #0
 8000a80:	bf00      	nop
 8000a82:	e7fd      	b.n	8000a80 <MemManage_Handler+0x4>

08000a84 <BusFault_Handler>:
 8000a84:	b480      	push	{r7}
 8000a86:	af00      	add	r7, sp, #0
 8000a88:	bf00      	nop
 8000a8a:	e7fd      	b.n	8000a88 <BusFault_Handler+0x4>

08000a8c <UsageFault_Handler>:
 8000a8c:	b480      	push	{r7}
 8000a8e:	af00      	add	r7, sp, #0
 8000a90:	bf00      	nop
 8000a92:	e7fd      	b.n	8000a90 <UsageFault_Handler+0x4>

08000a94 <SVC_Handler>:
 8000a94:	b480      	push	{r7}
 8000a96:	af00      	add	r7, sp, #0
 8000a98:	bf00      	nop
 8000a9a:	46bd      	mov	sp, r7
 8000a9c:	bc80      	pop	{r7}
 8000a9e:	4770      	bx	lr

08000aa0 <DebugMon_Handler>:
 8000aa0:	b480      	push	{r7}
 8000aa2:	af00      	add	r7, sp, #0
 8000aa4:	bf00      	nop
 8000aa6:	46bd      	mov	sp, r7
 8000aa8:	bc80      	pop	{r7}
 8000aaa:	4770      	bx	lr

08000aac <PendSV_Handler>:
 8000aac:	b480      	push	{r7}
 8000aae:	af00      	add	r7, sp, #0
 8000ab0:	bf00      	nop
 8000ab2:	46bd      	mov	sp, r7
 8000ab4:	bc80      	pop	{r7}
 8000ab6:	4770      	bx	lr

08000ab8 <SysTick_Handler>:
 8000ab8:	b580      	push	{r7, lr}
 8000aba:	af00      	add	r7, sp, #0
 8000abc:	4b04      	ldr	r3, [pc, #16]	@ (8000ad0 <SysTick_Handler+0x18>)
 8000abe:	681b      	ldr	r3, [r3, #0]
 8000ac0:	3301      	adds	r3, #1
 8000ac2:	4a03      	ldr	r2, [pc, #12]	@ (8000ad0 <SysTick_Handler+0x18>)
 8000ac4:	6013      	str	r3, [r2, #0]
 8000ac6:	f000 f831 	bl	8000b2c <HAL_IncTick>
 8000aca:	bf00      	nop
 8000acc:	bd80      	pop	{r7, pc}
 8000ace:	bf00      	nop
 8000ad0:	2000002c 	.word	0x2000002c

08000ad4 <SystemInit>:
 8000ad4:	b480      	push	{r7}
 8000ad6:	af00      	add	r7, sp, #0
 8000ad8:	bf00      	nop
 8000ada:	46bd      	mov	sp, r7
 8000adc:	bc80      	pop	{r7}
 8000ade:	4770      	bx	lr

08000ae0 <Reset_Handler>:
 8000ae0:	f7ff fff8 	bl	8000ad4 <SystemInit>
 8000ae4:	480b      	ldr	r0, [pc, #44]	@ (8000b14 <LoopFillZerobss+0xe>)
 8000ae6:	490c      	ldr	r1, [pc, #48]	@ (8000b18 <LoopFillZerobss+0x12>)
 8000ae8:	4a0c      	ldr	r2, [pc, #48]	@ (8000b1c <LoopFillZerobss+0x16>)
 8000aea:	2300      	movs	r3, #0
 8000aec:	e002      	b.n	8000af4 <LoopCopyDataInit>

08000aee <CopyDataInit>:
 8000aee:	58d4      	ldr	r4, [r2, r3]
 8000af0:	50c4      	str	r4, [r0, r3]
 8000af2:	3304      	adds	r3, #4

08000af4 <LoopCopyDataInit>:
 8000af4:	18c4      	adds	r4, r0, r3
 8000af6:	428c      	cmp	r4, r1
 8000af8:	d3f9      	bcc.n	8000aee <CopyDataInit>
 8000afa:	4a09      	ldr	r2, [pc, #36]	@ (8000b20 <LoopFillZerobss+0x1a>)
 8000afc:	4c09      	ldr	r4, [pc, #36]	@ (8000b24 <LoopFillZerobss+0x1e>)
 8000afe:	2300      	movs	r3, #0
 8000b00:	e001      	b.n	8000b06 <LoopFillZerobss>

08000b02 <FillZerobss>:
 8000b02:	6013      	str	r3, [r2, #0]
 8000b04:	3204      	adds	r2, #4

08000b06 <LoopFillZerobss>:
 8000b06:	42a2      	cmp	r2, r4
 8000b08:	d3fb      	bcc.n	8000b02 <FillZerobss>
 8000b0a:	f000 f821 	bl	8000b50 <__libc_init_array>
 8000b0e:	f7ff fe69 	bl	80007e4 <main>
 8000b12:	4770      	bx	lr
 8000b14:	20000000 	.word	0x20000000
 8000b18:	20000010 	.word	0x20000010
 8000b1c:	08000bb8 	.word	0x08000bb8
 8000b20:	20000010 	.word	0x20000010
 8000b24:	200049fc 	.word	0x200049fc

08000b28 <ADC1_2_IRQHandler>:
 8000b28:	e7fe      	b.n	8000b28 <ADC1_2_IRQHandler>
	...

08000b2c <HAL_IncTick>:
 8000b2c:	b480      	push	{r7}
 8000b2e:	af00      	add	r7, sp, #0
 8000b30:	4b05      	ldr	r3, [pc, #20]	@ (8000b48 <HAL_IncTick+0x1c>)
 8000b32:	781b      	ldrb	r3, [r3, #0]
 8000b34:	461a      	mov	r2, r3
 8000b36:	4b05      	ldr	r3, [pc, #20]	@ (8000b4c <HAL_IncTick+0x20>)
 8000b38:	681b      	ldr	r3, [r3, #0]
 8000b3a:	4413      	add	r3, r2
 8000b3c:	4a03      	ldr	r2, [pc, #12]	@ (8000b4c <HAL_IncTick+0x20>)
 8000b3e:	6013      	str	r3, [r2, #0]
 8000b40:	bf00      	nop
 8000b42:	46bd      	mov	sp, r7
 8000b44:	bc80      	pop	{r7}
 8000b46:	4770      	bx	lr
 8000b48:	2000000c 	.word	0x2000000c
 8000b4c:	200049f8 	.word	0x200049f8

08000b50 <__libc_init_array>:
 8000b50:	b570      	push	{r4, r5, r6, lr}
 8000b52:	2600      	movs	r6, #0
 8000b54:	4d0c      	ldr	r5, [pc, #48]	@ (8000b88 <__libc_init_array+0x38>)
 8000b56:	4c0d      	ldr	r4, [pc, #52]	@ (8000b8c <__libc_init_array+0x3c>)
 8000b58:	1b64      	subs	r4, r4, r5
 8000b5a:	10a4      	asrs	r4, r4, #2
 8000b5c:	42a6      	cmp	r6, r4
 8000b5e:	d109      	bne.n	8000b74 <__libc_init_array+0x24>
 8000b60:	f000 f81a 	bl	8000b98 <_init>
 8000b64:	2600      	movs	r6, #0
 8000b66:	4d0a      	ldr	r5, [pc, #40]	@ (8000b90 <__libc_init_array+0x40>)
 8000b68:	4c0a      	ldr	r4, [pc, #40]	@ (8000b94 <__libc_init_array+0x44>)
 8000b6a:	1b64      	subs	r4, r4, r5
 8000b6c:	10a4      	asrs	r4, r4, #2
 8000b6e:	42a6      	cmp	r6, r4
 8000b70:	d105      	bne.n	8000b7e <__libc_init_array+0x2e>
 8000b72:	bd70      	pop	{r4, r5, r6, pc}
 8000b74:	f855 3b04 	ldr.w	r3, [r5], #4
 8000b78:	4798      	blx	r3
 8000b7a:	3601      	adds	r6, #1
 8000b7c:	e7ee      	b.n	8000b5c <__libc_init_array+0xc>
 8000b7e:	f855 3b04 	ldr.w	r3, [r5], #4
 8000b82:	4798      	blx	r3
 8000b84:	3601      	adds	r6, #1
 8000b86:	e7f2      	b.n	8000b6e <__libc_init_array+0x1e>
 8000b88:	08000bb0 	.word	0x08000bb0
 8000b8c:	08000bb0 	.word	0x08000bb0
 8000b90:	08000bb0 	.word	0x08000bb0
 8000b94:	08000bb4 	.word	0x08000bb4

08000b98 <_init>:
 8000b98:	b5f8      	push	{r3, r4, r5, r6, r7, lr}
 8000b9a:	bf00      	nop
 8000b9c:	bcf8      	pop	{r3, r4, r5, r6, r7}
 8000b9e:	bc08      	pop	{r3}
 8000ba0:	469e      	mov	lr, r3
 8000ba2:	4770      	bx	lr

08000ba4 <_fini>:
 8000ba4:	b5f8      	push	{r3, r4, r5, r6, r7, lr}
 8000ba6:	bf00      	nop
 8000ba8:	bcf8      	pop	{r3, r4, r5, r6, r7}
 8000baa:	bc08      	pop	{r3}
 8000bac:	469e      	mov	lr, r3
 8000bae:	4770      	bx	lr
